; ModuleID = '19/371.c'
source_filename = "19/371.c"
target datalayout = "e-m:e-p270:32:32-p271:32:32-p272:64:64-i64:64-f80:128-n8:16:32:64-S128"
target triple = "x86_64-pc-linux-gnu"

; Function Attrs: noinline nounwind uwtable
define dso_local void @main() #0 {
  %1 = alloca [100 x i8], align 16
  %2 = alloca [100 x i8], align 16
  %3 = alloca [100 x i8], align 16
  %4 = alloca [100 x i8], align 16
  %5 = alloca i32, align 4
  %6 = alloca i32, align 4
  %7 = alloca i32, align 4
  %8 = alloca i32, align 4
  %9 = alloca i32, align 4
  %10 = alloca i32, align 4
  %11 = alloca i32, align 4
  %12 = bitcast [100 x i8]* %1 to i8*
  call void @llvm.memset.p0i8.i64(i8* align 16 %12, i8 0, i64 100, i1 false)
  %13 = bitcast [100 x i8]* %2 to i8*
  call void @llvm.memset.p0i8.i64(i8* align 16 %13, i8 0, i64 100, i1 false)
  %14 = bitcast [100 x i8]* %3 to i8*
  call void @llvm.memset.p0i8.i64(i8* align 16 %14, i8 0, i64 100, i1 false)
  %15 = bitcast [100 x i8]* %4 to i8*
  call void @llvm.memset.p0i8.i64(i8* align 16 %15, i8 0, i64 100, i1 false)
  %16 = getelementptr inbounds [100 x i8], [100 x i8]* %1, i64 0, i64 0
  %17 = call i32 (i8*, ...) bitcast (i32 (...)* @gets to i32 (i8*, ...)*)(i8* %16)
  %18 = getelementptr inbounds [100 x i8], [100 x i8]* %2, i64 0, i64 0
  %19 = call i32 (i8*, ...) bitcast (i32 (...)* @gets to i32 (i8*, ...)*)(i8* %18)
  %20 = getelementptr inbounds [100 x i8], [100 x i8]* %3, i64 0, i64 0
  %21 = call i32 (i8*, ...) bitcast (i32 (...)* @gets to i32 (i8*, ...)*)(i8* %20)
  %22 = getelementptr inbounds [100 x i8], [100 x i8]* %2, i64 0, i64 0
  %23 = call i64 @strlen(i8* %22) #4
  %24 = trunc i64 %23 to i32
  store i32 %24, i32* %9, align 4
  %25 = getelementptr inbounds [100 x i8], [100 x i8]* %3, i64 0, i64 0
  %26 = call i64 @strlen(i8* %25) #4
  %27 = trunc i64 %26 to i32
  store i32 %27, i32* %10, align 4
  store i32 0, i32* %5, align 4
  store i32 0, i32* %6, align 4
  br label %28

28:                                               ; preds = %167, %160, %0
  %29 = getelementptr inbounds [100 x i8], [100 x i8]* %1, i64 0, i64 0
  %30 = load i32, i32* %6, align 4
  %31 = sext i32 %30 to i64
  %32 = getelementptr inbounds i8, i8* %29, i64 %31
  %33 = load i8, i8* %32, align 1
  %34 = sext i8 %33 to i32
  %35 = icmp ne i32 %34, 0
  br i1 %35, label %36, label %181

36:                                               ; preds = %28
  %37 = getelementptr inbounds [100 x i8], [100 x i8]* %1, i64 0, i64 0
  %38 = load i32, i32* %6, align 4
  %39 = sext i32 %38 to i64
  %40 = getelementptr inbounds i8, i8* %37, i64 %39
  %41 = load i8, i8* %40, align 1
  %42 = sext i8 %41 to i32
  %43 = getelementptr inbounds [100 x i8], [100 x i8]* %2, i64 0, i64 0
  %44 = load i8, i8* %43, align 16
  %45 = sext i8 %44 to i32
  %46 = icmp eq i32 %42, %45
  br i1 %46, label %47, label %167

47:                                               ; preds = %36
  %48 = load i32, i32* %6, align 4
  %49 = icmp sge i32 %48, 1
  br i1 %49, label %50, label %81

50:                                               ; preds = %47
  %51 = getelementptr inbounds [100 x i8], [100 x i8]* %1, i64 0, i64 0
  %52 = load i32, i32* %6, align 4
  %53 = sext i32 %52 to i64
  %54 = getelementptr inbounds i8, i8* %51, i64 %53
  %55 = getelementptr inbounds i8, i8* %54, i64 -1
  %56 = load i8, i8* %55, align 1
  %57 = sext i8 %56 to i32
  %58 = icmp eq i32 %57, 32
  br i1 %58, label %59, label %81

59:                                               ; preds = %50
  %60 = getelementptr inbounds [100 x i8], [100 x i8]* %1, i64 0, i64 0
  %61 = load i32, i32* %6, align 4
  %62 = sext i32 %61 to i64
  %63 = getelementptr inbounds i8, i8* %60, i64 %62
  %64 = load i32, i32* %9, align 4
  %65 = sext i32 %64 to i64
  %66 = getelementptr inbounds i8, i8* %63, i64 %65
  %67 = load i8, i8* %66, align 1
  %68 = sext i8 %67 to i32
  %69 = icmp eq i32 %68, 32
  br i1 %69, label %106, label %70

70:                                               ; preds = %59
  %71 = getelementptr inbounds [100 x i8], [100 x i8]* %1, i64 0, i64 0
  %72 = load i32, i32* %6, align 4
  %73 = sext i32 %72 to i64
  %74 = getelementptr inbounds i8, i8* %71, i64 %73
  %75 = load i32, i32* %9, align 4
  %76 = sext i32 %75 to i64
  %77 = getelementptr inbounds i8, i8* %74, i64 %76
  %78 = load i8, i8* %77, align 1
  %79 = sext i8 %78 to i32
  %80 = icmp eq i32 %79, 0
  br i1 %80, label %106, label %81

81:                                               ; preds = %70, %50, %47
  %82 = load i32, i32* %6, align 4
  %83 = icmp eq i32 %82, 0
  br i1 %83, label %84, label %167

84:                                               ; preds = %81
  %85 = getelementptr inbounds [100 x i8], [100 x i8]* %1, i64 0, i64 0
  %86 = load i32, i32* %6, align 4
  %87 = sext i32 %86 to i64
  %88 = getelementptr inbounds i8, i8* %85, i64 %87
  %89 = load i32, i32* %9, align 4
  %90 = sext i32 %89 to i64
  %91 = getelementptr inbounds i8, i8* %88, i64 %90
  %92 = load i8, i8* %91, align 1
  %93 = sext i8 %92 to i32
  %94 = icmp eq i32 %93, 32
  br i1 %94, label %106, label %95

95:                                               ; preds = %84
  %96 = getelementptr inbounds [100 x i8], [100 x i8]* %1, i64 0, i64 0
  %97 = load i32, i32* %6, align 4
  %98 = sext i32 %97 to i64
  %99 = getelementptr inbounds i8, i8* %96, i64 %98
  %100 = load i32, i32* %9, align 4
  %101 = sext i32 %100 to i64
  %102 = getelementptr inbounds i8, i8* %99, i64 %101
  %103 = load i8, i8* %102, align 1
  %104 = sext i8 %103 to i32
  %105 = icmp eq i32 %104, 0
  br i1 %105, label %106, label %167

106:                                              ; preds = %95, %84, %70, %59
  %107 = load i32, i32* %6, align 4
  store i32 %107, i32* %11, align 4
  store i32 0, i32* %7, align 4
  br label %108

108:                                              ; preds = %131, %106
  %109 = load i32, i32* %7, align 4
  %110 = load i32, i32* %9, align 4
  %111 = icmp slt i32 %109, %110
  br i1 %111, label %112, label %134

112:                                              ; preds = %108
  %113 = getelementptr inbounds [100 x i8], [100 x i8]* %1, i64 0, i64 0
  %114 = load i32, i32* %11, align 4
  %115 = sext i32 %114 to i64
  %116 = getelementptr inbounds i8, i8* %113, i64 %115
  %117 = load i32, i32* %7, align 4
  %118 = sext i32 %117 to i64
  %119 = getelementptr inbounds i8, i8* %116, i64 %118
  %120 = load i8, i8* %119, align 1
  %121 = sext i8 %120 to i32
  %122 = getelementptr inbounds [100 x i8], [100 x i8]* %2, i64 0, i64 0
  %123 = load i32, i32* %7, align 4
  %124 = sext i32 %123 to i64
  %125 = getelementptr inbounds i8, i8* %122, i64 %124
  %126 = load i8, i8* %125, align 1
  %127 = sext i8 %126 to i32
  %128 = icmp ne i32 %121, %127
  br i1 %128, label %129, label %130

129:                                              ; preds = %112
  br label %134

130:                                              ; preds = %112
  br label %131

131:                                              ; preds = %130
  %132 = load i32, i32* %7, align 4
  %133 = add nsw i32 %132, 1
  store i32 %133, i32* %7, align 4
  br label %108

134:                                              ; preds = %129, %108
  %135 = load i32, i32* %7, align 4
  %136 = load i32, i32* %9, align 4
  %137 = icmp eq i32 %135, %136
  br i1 %137, label %138, label %166

138:                                              ; preds = %134
  store i32 0, i32* %8, align 4
  br label %139

139:                                              ; preds = %157, %138
  %140 = load i32, i32* %8, align 4
  %141 = load i32, i32* %10, align 4
  %142 = icmp slt i32 %140, %141
  br i1 %142, label %143, label %160

143:                                              ; preds = %139
  %144 = getelementptr inbounds [100 x i8], [100 x i8]* %3, i64 0, i64 0
  %145 = load i32, i32* %8, align 4
  %146 = sext i32 %145 to i64
  %147 = getelementptr inbounds i8, i8* %144, i64 %146
  %148 = load i8, i8* %147, align 1
  %149 = getelementptr inbounds [100 x i8], [100 x i8]* %4, i64 0, i64 0
  %150 = load i32, i32* %5, align 4
  %151 = sext i32 %150 to i64
  %152 = getelementptr inbounds i8, i8* %149, i64 %151
  store i8 %148, i8* %152, align 1
  %153 = load i32, i32* %5, align 4
  %154 = add nsw i32 %153, 1
  store i32 %154, i32* %5, align 4
  %155 = load i32, i32* %6, align 4
  %156 = add nsw i32 %155, 1
  store i32 %156, i32* %6, align 4
  br label %157

157:                                              ; preds = %143
  %158 = load i32, i32* %8, align 4
  %159 = add nsw i32 %158, 1
  store i32 %159, i32* %8, align 4
  br label %139

160:                                              ; preds = %139
  %161 = load i32, i32* %6, align 4
  %162 = load i32, i32* %9, align 4
  %163 = add nsw i32 %161, %162
  %164 = load i32, i32* %10, align 4
  %165 = sub nsw i32 %163, %164
  store i32 %165, i32* %6, align 4
  br label %28

166:                                              ; preds = %134
  br label %167

167:                                              ; preds = %166, %95, %81, %36
  %168 = getelementptr inbounds [100 x i8], [100 x i8]* %1, i64 0, i64 0
  %169 = load i32, i32* %6, align 4
  %170 = sext i32 %169 to i64
  %171 = getelementptr inbounds i8, i8* %168, i64 %170
  %172 = load i8, i8* %171, align 1
  %173 = getelementptr inbounds [100 x i8], [100 x i8]* %4, i64 0, i64 0
  %174 = load i32, i32* %5, align 4
  %175 = sext i32 %174 to i64
  %176 = getelementptr inbounds i8, i8* %173, i64 %175
  store i8 %172, i8* %176, align 1
  %177 = load i32, i32* %5, align 4
  %178 = add nsw i32 %177, 1
  store i32 %178, i32* %5, align 4
  %179 = load i32, i32* %6, align 4
  %180 = add nsw i32 %179, 1
  store i32 %180, i32* %6, align 4
  br label %28

181:                                              ; preds = %28
  %182 = getelementptr inbounds [100 x i8], [100 x i8]* %4, i64 0, i64 0
  %183 = call i32 @puts(i8* %182)
  ret void
}

; Function Attrs: argmemonly nounwind willreturn
declare void @llvm.memset.p0i8.i64(i8* nocapture writeonly, i8, i64, i1 immarg) #1

declare dso_local i32 @gets(...) #2

; Function Attrs: nounwind readonly
declare dso_local i64 @strlen(i8*) #3

declare dso_local i32 @puts(i8*) #2


!llvm.module.flags = !{!0}
!llvm.ident = !{!1}

!0 = !{i32 1, !"wchar_size", i32 4}
!1 = !{!"clang version 10.0.0-4ubuntu1 "}
